target datalayout = "e-m:e-p270:32:32-p271:32:32-p272:64:64-i64:64-i128:128-f80:128-n8:16:32:64-S128"
target triple = "x86_64-unknown-linux-gnu"

%struct.MachineClass = type { %struct.ObjectClass, ptr, ptr, ptr, ptr, ptr, ptr, ptr, ptr, ptr, i32, i32, i32, i32, i32, i8, i8, ptr, ptr, ptr, ptr, ptr, ptr, i64, ptr, i8, i8, i8, i32, i8, i8, i32, ptr, ptr, i8, i8, i8, i8, i8, i8, i8, i8, %struct.SMPCompatProps, ptr, ptr, ptr, ptr, ptr, ptr, ptr }
%struct.ObjectClass = type { ptr, ptr, [4 x ptr], [4 x ptr], ptr, ptr }
%struct.SMPCompatProps = type { i8, i8, i8, i8, i8, i8 }
%struct.MachineState = type { %struct.Object, ptr, ptr, ptr, i32, ptr, i8, i8, i8, i8, ptr, i8, i8, i8, ptr, ptr, ptr, ptr, ptr, i64, i64, i64, %struct.BootConfiguration, ptr, ptr, ptr, ptr, ptr, ptr, %struct.CpuTopology, ptr, ptr }
%struct.Object = type { ptr, ptr, ptr, i32, ptr }
%struct.BootConfiguration = type { ptr, ptr, i8, i8, ptr, i8, i64, i8, i64, i8, i8 }
%struct.CpuTopology = type { i32, i32, i32, i32, i32, i32, i32, i32, i32 }

@.str.225 = private unnamed_addr constant [8 x i8] c"machine\00", align 1
@.str.226 = private unnamed_addr constant [98 x i8] c"/home/dtcxzyw/WorkSpace/Projects/compilers/llvm-opt-benchmark/bench/qemu/qemu/include/hw/boards.h\00", align 1
@__func__.MACHINE_GET_CLASS = private unnamed_addr constant [18 x i8] c"MACHINE_GET_CLASS\00", align 1
@__func__.MACHINE = private unnamed_addr constant [8 x i8] c"MACHINE\00", align 1
@.str.234 = private unnamed_addr constant [1 x i8] zeroinitializer, align 1
@.str.248 = private unnamed_addr constant [12 x i8] c"/peripheral\00", align 1
@.str.249 = private unnamed_addr constant [17 x i8] c"/peripheral-anon\00", align 1
@.str.250 = private unnamed_addr constant [7 x i8] c"nvdimm\00", align 1
@.str.251 = private unnamed_addr constant [50 x i8] c"Set on/off to enable/disable NVDIMM instantiation\00", align 1
@.str.252 = private unnamed_addr constant [19 x i8] c"nvdimm-persistence\00", align 1
@.str.253 = private unnamed_addr constant [53 x i8] c"Set NVDIMM persistenceValid values are cpu, mem-ctrl\00", align 1
@.str.254 = private unnamed_addr constant [5 x i8] c"hmat\00", align 1
@.str.255 = private unnamed_addr constant [78 x i8] c"Set on/off to enable/disable ACPI Heterogeneous Memory Attribute Table (HMAT)\00", align 1

; Function Attrs: nounwind sspstrong uwtable
define internal void @machine_free_boot_config(ptr noundef %ms) #0 {
entry:
  %ms.addr = alloca ptr, align 8
  store ptr %ms, ptr %ms.addr, align 8
  %0 = load ptr, ptr %ms.addr, align 8
  %boot_config = getelementptr inbounds %struct.MachineState, ptr %0, i32 0, i32 22
  %order = getelementptr inbounds %struct.BootConfiguration, ptr %boot_config, i32 0, i32 0
  %1 = load ptr, ptr %order, align 8
  call void @g_free(ptr noundef %1)
  %2 = load ptr, ptr %ms.addr, align 8
  %boot_config1 = getelementptr inbounds %struct.MachineState, ptr %2, i32 0, i32 22
  %once = getelementptr inbounds %struct.BootConfiguration, ptr %boot_config1, i32 0, i32 1
  %3 = load ptr, ptr %once, align 8
  call void @g_free(ptr noundef %3)
  %4 = load ptr, ptr %ms.addr, align 8
  %boot_config2 = getelementptr inbounds %struct.MachineState, ptr %4, i32 0, i32 22
  %splash = getelementptr inbounds %struct.BootConfiguration, ptr %boot_config2, i32 0, i32 4
  %5 = load ptr, ptr %splash, align 8
  call void @g_free(ptr noundef %5)
  ret void
}

; Function Attrs: nounwind sspstrong uwtable
define internal void @machine_copy_boot_config(ptr noundef %ms, ptr noundef %config) #0 {
entry:
  %ms.addr = alloca ptr, align 8
  %config.addr = alloca ptr, align 8
  %machine_class = alloca ptr, align 8
  store ptr %ms, ptr %ms.addr, align 8
  store ptr %config, ptr %config.addr, align 8
  %0 = load ptr, ptr %ms.addr, align 8
  %call = call ptr @MACHINE_GET_CLASS(ptr noundef %0)
  store ptr %call, ptr %machine_class, align 8
  %1 = load ptr, ptr %ms.addr, align 8
  call void @machine_free_boot_config(ptr noundef %1)
  %2 = load ptr, ptr %ms.addr, align 8
  %boot_config = getelementptr inbounds %struct.MachineState, ptr %2, i32 0, i32 22
  %3 = load ptr, ptr %config.addr, align 8
  call void @llvm.memcpy.p0.p0.i64(ptr align 8 %boot_config, ptr align 8 %3, i64 72, i1 false)
  %4 = load ptr, ptr %config.addr, align 8
  %order = getelementptr inbounds %struct.BootConfiguration, ptr %4, i32 0, i32 0
  %5 = load ptr, ptr %order, align 8
  %tobool = icmp ne ptr %5, null
  br i1 %tobool, label %if.end, label %if.then

if.then:                                          ; preds = %entry
  %6 = load ptr, ptr %machine_class, align 8
  %default_boot_order = getelementptr inbounds %struct.MachineClass, ptr %6, i32 0, i32 18
  %7 = load ptr, ptr %default_boot_order, align 8
  %call1 = call noalias ptr @g_strdup(ptr noundef %7)
  %8 = load ptr, ptr %ms.addr, align 8
  %boot_config2 = getelementptr inbounds %struct.MachineState, ptr %8, i32 0, i32 22
  %order3 = getelementptr inbounds %struct.BootConfiguration, ptr %boot_config2, i32 0, i32 0
  store ptr %call1, ptr %order3, align 8
  br label %if.end

if.end:                                           ; preds = %if.then, %entry
  ret void
}

; Function Attrs: nounwind sspstrong uwtable
define internal ptr @MACHINE_GET_CLASS(ptr noundef %obj) #0 {
entry:
  %obj.addr = alloca ptr, align 8
  store ptr %obj, ptr %obj.addr, align 8
  %0 = load ptr, ptr %obj.addr, align 8
  %call = call ptr @object_get_class(ptr noundef %0)
  %call1 = call ptr @object_class_dynamic_cast_assert(ptr noundef %call, ptr noundef @.str.225, ptr noundef @.str.226, i32 noundef 23, ptr noundef @__func__.MACHINE_GET_CLASS)
  ret ptr %call1
}

; Function Attrs: nounwind sspstrong uwtable
define internal ptr @MACHINE(ptr noundef %obj) #0 {
entry:
  %obj.addr = alloca ptr, align 8
  store ptr %obj, ptr %obj.addr, align 8
  %0 = load ptr, ptr %obj.addr, align 8
  %call = call ptr @object_dynamic_cast_assert(ptr noundef %0, ptr noundef @.str.225, ptr noundef @.str.226, i32 noundef 23, ptr noundef @__func__.MACHINE)
  ret ptr %call
}

; Function Attrs: nounwind sspstrong uwtable
define internal void @machine_initfn(ptr noundef %obj) #0 {
entry:
  %obj.addr = alloca ptr, align 8
  %ms = alloca ptr, align 8
  %mc = alloca ptr, align 8
  %.compoundliteral = alloca %struct.BootConfiguration, align 8
  store ptr %obj, ptr %obj.addr, align 8
  %0 = load ptr, ptr %obj.addr, align 8
  %call = call ptr @MACHINE(ptr noundef %0)
  store ptr %call, ptr %ms, align 8
  %1 = load ptr, ptr %obj.addr, align 8
  %call1 = call ptr @MACHINE_GET_CLASS(ptr noundef %1)
  store ptr %call1, ptr %mc, align 8
  %2 = load ptr, ptr %obj.addr, align 8
  %call2 = call ptr @container_get(ptr noundef %2, ptr noundef @.str.248)
  %3 = load ptr, ptr %obj.addr, align 8
  %call3 = call ptr @container_get(ptr noundef %3, ptr noundef @.str.249)
  %4 = load ptr, ptr %ms, align 8
  %dump_guest_core = getelementptr inbounds %struct.MachineState, ptr %4, i32 0, i32 6
  store i8 1, ptr %dump_guest_core, align 8
  %5 = load ptr, ptr %ms, align 8
  %mem_merge = getelementptr inbounds %struct.MachineState, ptr %5, i32 0, i32 7
  store i8 1, ptr %mem_merge, align 1
  %6 = load ptr, ptr %ms, align 8
  %enable_graphics = getelementptr inbounds %struct.MachineState, ptr %6, i32 0, i32 13
  store i8 1, ptr %enable_graphics, align 2
  %call4 = call noalias ptr @g_strdup(ptr noundef @.str.234)
  %7 = load ptr, ptr %ms, align 8
  %kernel_cmdline = getelementptr inbounds %struct.MachineState, ptr %7, i32 0, i32 24
  store ptr %call4, ptr %kernel_cmdline, align 8
  %8 = load ptr, ptr %mc, align 8
  %default_ram_size = getelementptr inbounds %struct.MachineClass, ptr %8, i32 0, i32 23
  %9 = load i64, ptr %default_ram_size, align 8
  %10 = load ptr, ptr %ms, align 8
  %ram_size = getelementptr inbounds %struct.MachineState, ptr %10, i32 0, i32 19
  store i64 %9, ptr %ram_size, align 8
  %11 = load ptr, ptr %mc, align 8
  %default_ram_size5 = getelementptr inbounds %struct.MachineClass, ptr %11, i32 0, i32 23
  %12 = load i64, ptr %default_ram_size5, align 8
  %13 = load ptr, ptr %ms, align 8
  %maxram_size = getelementptr inbounds %struct.MachineState, ptr %13, i32 0, i32 20
  store i64 %12, ptr %maxram_size, align 8
  %14 = load ptr, ptr %mc, align 8
  %nvdimm_supported = getelementptr inbounds %struct.MachineClass, ptr %14, i32 0, i32 38
  %15 = load i8, ptr %nvdimm_supported, align 4
  %tobool = trunc i8 %15 to i1
  br i1 %tobool, label %if.then, label %if.end

if.then:                                          ; preds = %entry
  %call6 = call noalias ptr @g_malloc0_n(i64 noundef 1, i64 noundef 336) #11
  %16 = load ptr, ptr %ms, align 8
  %nvdimms_state = getelementptr inbounds %struct.MachineState, ptr %16, i32 0, i32 30
  store ptr %call6, ptr %nvdimms_state, align 8
  %17 = load ptr, ptr %obj.addr, align 8
  %call7 = call ptr @object_property_add_bool(ptr noundef %17, ptr noundef @.str.250, ptr noundef @machine_get_nvdimm, ptr noundef @machine_set_nvdimm)
  %18 = load ptr, ptr %obj.addr, align 8
  call void @object_property_set_description(ptr noundef %18, ptr noundef @.str.250, ptr noundef @.str.251)
  %19 = load ptr, ptr %obj.addr, align 8
  %call8 = call ptr @object_property_add_str(ptr noundef %19, ptr noundef @.str.252, ptr noundef @machine_get_nvdimm_persistence, ptr noundef @machine_set_nvdimm_persistence)
  %20 = load ptr, ptr %obj.addr, align 8
  call void @object_property_set_description(ptr noundef %20, ptr noundef @.str.252, ptr noundef @.str.253)
  br label %if.end

if.end:                                           ; preds = %if.then, %entry
  %21 = load ptr, ptr %mc, align 8
  %cpu_index_to_instance_props = getelementptr inbounds %struct.MachineClass, ptr %21, i32 0, i32 46
  %22 = load ptr, ptr %cpu_index_to_instance_props, align 8
  %tobool9 = icmp ne ptr %22, null
  br i1 %tobool9, label %land.lhs.true, label %if.end14

land.lhs.true:                                    ; preds = %if.end
  %23 = load ptr, ptr %mc, align 8
  %get_default_cpu_node_id = getelementptr inbounds %struct.MachineClass, ptr %23, i32 0, i32 48
  %24 = load ptr, ptr %get_default_cpu_node_id, align 8
  %tobool10 = icmp ne ptr %24, null
  br i1 %tobool10, label %if.then11, label %if.end14

if.then11:                                        ; preds = %land.lhs.true
  %call12 = call noalias ptr @g_malloc0_n(i64 noundef 1, i64 noundef 23752) #11
  %25 = load ptr, ptr %ms, align 8
  %numa_state = getelementptr inbounds %struct.MachineState, ptr %25, i32 0, i32 31
  store ptr %call12, ptr %numa_state, align 8
  %26 = load ptr, ptr %obj.addr, align 8
  %call13 = call ptr @object_property_add_bool(ptr noundef %26, ptr noundef @.str.254, ptr noundef @machine_get_hmat, ptr noundef @machine_set_hmat)
  %27 = load ptr, ptr %obj.addr, align 8
  call void @object_property_set_description(ptr noundef %27, ptr noundef @.str.254, ptr noundef @.str.255)
  br label %if.end14

if.end14:                                         ; preds = %if.then11, %land.lhs.true, %if.end
  %28 = load ptr, ptr %mc, align 8
  %default_cpus = getelementptr inbounds %struct.MachineClass, ptr %28, i32 0, i32 14
  %29 = load i32, ptr %default_cpus, align 8
  %30 = load ptr, ptr %ms, align 8
  %smp = getelementptr inbounds %struct.MachineState, ptr %30, i32 0, i32 29
  %cpus = getelementptr inbounds %struct.CpuTopology, ptr %smp, i32 0, i32 0
  store i32 %29, ptr %cpus, align 8
  %31 = load ptr, ptr %mc, align 8
  %default_cpus15 = getelementptr inbounds %struct.MachineClass, ptr %31, i32 0, i32 14
  %32 = load i32, ptr %default_cpus15, align 8
  %33 = load ptr, ptr %ms, align 8
  %smp16 = getelementptr inbounds %struct.MachineState, ptr %33, i32 0, i32 29
  %max_cpus = getelementptr inbounds %struct.CpuTopology, ptr %smp16, i32 0, i32 8
  store i32 %32, ptr %max_cpus, align 8
  %34 = load ptr, ptr %ms, align 8
  %smp17 = getelementptr inbounds %struct.MachineState, ptr %34, i32 0, i32 29
  %drawers = getelementptr inbounds %struct.CpuTopology, ptr %smp17, i32 0, i32 1
  store i32 1, ptr %drawers, align 4
  %35 = load ptr, ptr %ms, align 8
  %smp18 = getelementptr inbounds %struct.MachineState, ptr %35, i32 0, i32 29
  %books = getelementptr inbounds %struct.CpuTopology, ptr %smp18, i32 0, i32 2
  store i32 1, ptr %books, align 8
  %36 = load ptr, ptr %ms, align 8
  %smp19 = getelementptr inbounds %struct.MachineState, ptr %36, i32 0, i32 29
  %sockets = getelementptr inbounds %struct.CpuTopology, ptr %smp19, i32 0, i32 3
  store i32 1, ptr %sockets, align 4
  %37 = load ptr, ptr %ms, align 8
  %smp20 = getelementptr inbounds %struct.MachineState, ptr %37, i32 0, i32 29
  %dies = getelementptr inbounds %struct.CpuTopology, ptr %smp20, i32 0, i32 4
  store i32 1, ptr %dies, align 8
  %38 = load ptr, ptr %ms, align 8
  %smp21 = getelementptr inbounds %struct.MachineState, ptr %38, i32 0, i32 29
  %clusters = getelementptr inbounds %struct.CpuTopology, ptr %smp21, i32 0, i32 5
  store i32 1, ptr %clusters, align 4
  %39 = load ptr, ptr %ms, align 8
  %smp22 = getelementptr inbounds %struct.MachineState, ptr %39, i32 0, i32 29
  %cores = getelementptr inbounds %struct.CpuTopology, ptr %smp22, i32 0, i32 6
  store i32 1, ptr %cores, align 8
  %40 = load ptr, ptr %ms, align 8
  %smp23 = getelementptr inbounds %struct.MachineState, ptr %40, i32 0, i32 29
  %threads = getelementptr inbounds %struct.CpuTopology, ptr %smp23, i32 0, i32 7
  store i32 1, ptr %threads, align 4
  %41 = load ptr, ptr %ms, align 8
  call void @llvm.memset.p0.i64(ptr align 8 %.compoundliteral, i8 0, i64 72, i1 false)
  call void @machine_copy_boot_config(ptr noundef %41, ptr noundef %.compoundliteral)
  ret void
}