; Function Attrs: nounwind sspstrong uwtable
define internal void @machine_initfn(ptr noundef %obj) #0 {
entry:
  %call.i = tail call ptr @object_dynamic_cast_assert(ptr noundef %obj, ptr noundef nonnull @.str.225, ptr noundef nonnull @.str.226, i32 noundef 23, ptr noundef nonnull @__func__.MACHINE) #16
  %call.i33 = tail call ptr @object_get_class(ptr noundef %obj) #16
  %call1.i = tail call ptr @object_class_dynamic_cast_assert(ptr noundef %call.i33, ptr noundef nonnull @.str.225, ptr noundef nonnull @.str.226, i32 noundef 23, ptr noundef nonnull @__func__.MACHINE_GET_CLASS) #16
  %call2 = tail call ptr @container_get(ptr noundef %obj, ptr noundef nonnull @.str.248) #16
  %call3 = tail call ptr @container_get(ptr noundef %obj, ptr noundef nonnull @.str.249) #16
  %dump_guest_core = getelementptr inbounds nuw i8, ptr %call.i, i64 80
  store i8 1, ptr %dump_guest_core, align 8
  %mem_merge = getelementptr inbounds nuw i8, ptr %call.i, i64 81
  store i8 1, ptr %mem_merge, align 1
  %enable_graphics = getelementptr inbounds nuw i8, ptr %call.i, i64 98
  store i8 1, ptr %enable_graphics, align 2
  %call4 = tail call noalias ptr @g_strdup(ptr noundef nonnull @.str.234) #16
  %kernel_cmdline = getelementptr inbounds nuw i8, ptr %call.i, i64 248
  store ptr %call4, ptr %kernel_cmdline, align 8
  %default_ram_size = getelementptr inbounds nuw i8, ptr %call1.i, i64 240
  %0 = load i64, ptr %default_ram_size, align 8
  %ram_size = getelementptr inbounds nuw i8, ptr %call.i, i64 144
  store i64 %0, ptr %ram_size, align 8
  %maxram_size = getelementptr inbounds nuw i8, ptr %call.i, i64 152
  store i64 %0, ptr %maxram_size, align 8
  %nvdimm_supported = getelementptr inbounds nuw i8, ptr %call1.i, i64 292
  %1 = load i8, ptr %nvdimm_supported, align 4
  %tobool = trunc i8 %1 to i1
  br i1 %tobool, label %if.then, label %if.end

if.then:                                          ; preds = %entry
  %call6 = tail call noalias dereferenceable_or_null(336) ptr @g_malloc0_n(i64 noundef 1, i64 noundef 336) #17
  %nvdimms_state = getelementptr inbounds nuw i8, ptr %call.i, i64 328
  store ptr %call6, ptr %nvdimms_state, align 8
  %call7 = tail call ptr @object_property_add_bool(ptr noundef %obj, ptr noundef nonnull @.str.250, ptr noundef nonnull @machine_get_nvdimm, ptr noundef nonnull @machine_set_nvdimm) #16
  tail call void @object_property_set_description(ptr noundef %obj, ptr noundef nonnull @.str.250, ptr noundef nonnull @.str.251) #16
  %call8 = tail call ptr @object_property_add_str(ptr noundef %obj, ptr noundef nonnull @.str.252, ptr noundef nonnull @machine_get_nvdimm_persistence, ptr noundef nonnull @machine_set_nvdimm_persistence) #16
  tail call void @object_property_set_description(ptr noundef %obj, ptr noundef nonnull @.str.252, ptr noundef nonnull @.str.253) #16
  br label %if.end

if.end:                                           ; preds = %if.then, %entry
  %cpu_index_to_instance_props = getelementptr inbounds nuw i8, ptr %call1.i, i64 328
  %2 = load ptr, ptr %cpu_index_to_instance_props, align 8
  %tobool9.not = icmp eq ptr %2, null
  br i1 %tobool9.not, label %machine_copy_boot_config.exit, label %land.lhs.true

land.lhs.true:                                    ; preds = %if.end
  %get_default_cpu_node_id = getelementptr inbounds nuw i8, ptr %call1.i, i64 344
  %3 = load ptr, ptr %get_default_cpu_node_id, align 8
  %tobool10.not = icmp eq ptr %3, null
  br i1 %tobool10.not, label %machine_copy_boot_config.exit, label %if.then11

if.then11:                                        ; preds = %land.lhs.true
  %call12 = tail call noalias dereferenceable_or_null(23752) ptr @g_malloc0_n(i64 noundef 1, i64 noundef 23752) #17
  %numa_state = getelementptr inbounds nuw i8, ptr %call.i, i64 336
  store ptr %call12, ptr %numa_state, align 8
  %call13 = tail call ptr @object_property_add_bool(ptr noundef %obj, ptr noundef nonnull @.str.254, ptr noundef nonnull @machine_get_hmat, ptr noundef nonnull @machine_set_hmat) #16
  tail call void @object_property_set_description(ptr noundef %obj, ptr noundef nonnull @.str.254, ptr noundef nonnull @.str.255) #16
  br label %machine_copy_boot_config.exit

machine_copy_boot_config.exit:                    ; preds = %if.then11, %land.lhs.true, %if.end
  %default_cpus = getelementptr inbounds nuw i8, ptr %call1.i, i64 184
  %4 = load i32, ptr %default_cpus, align 8
  %smp = getelementptr inbounds nuw i8, ptr %call.i, i64 288
  store i32 %4, ptr %smp, align 8
  %max_cpus = getelementptr inbounds nuw i8, ptr %call.i, i64 320
  store i32 %4, ptr %max_cpus, align 8
  %drawers = getelementptr inbounds nuw i8, ptr %call.i, i64 292
  store i32 1, ptr %drawers, align 4
  %books = getelementptr inbounds nuw i8, ptr %call.i, i64 296
  store i32 1, ptr %books, align 8
  %sockets = getelementptr inbounds nuw i8, ptr %call.i, i64 300
  store i32 1, ptr %sockets, align 4
  %dies = getelementptr inbounds nuw i8, ptr %call.i, i64 304
  store i32 1, ptr %dies, align 8
  %clusters = getelementptr inbounds nuw i8, ptr %call.i, i64 308
  store i32 1, ptr %clusters, align 4
  %cores = getelementptr inbounds nuw i8, ptr %call.i, i64 312
  store i32 1, ptr %cores, align 8
  %threads = getelementptr inbounds nuw i8, ptr %call.i, i64 316
  store i32 1, ptr %threads, align 4
  %call.i.i = tail call ptr @object_get_class(ptr noundef nonnull %call.i) #16
  %call1.i.i = tail call ptr @object_class_dynamic_cast_assert(ptr noundef %call.i.i, ptr noundef nonnull @.str.225, ptr noundef nonnull @.str.226, i32 noundef 23, ptr noundef nonnull @__func__.MACHINE_GET_CLASS) #16
  %boot_config.i.i = getelementptr inbounds nuw i8, ptr %call.i, i64 168
  %5 = load ptr, ptr %boot_config.i.i, align 8
  tail call void @g_free(ptr noundef %5) #16
  %once.i.i = getelementptr inbounds nuw i8, ptr %call.i, i64 176
  %6 = load ptr, ptr %once.i.i, align 8
  tail call void @g_free(ptr noundef %6) #16
  %splash.i.i = getelementptr inbounds nuw i8, ptr %call.i, i64 192
  %7 = load ptr, ptr %splash.i.i, align 8
  tail call void @g_free(ptr noundef %7) #16
  %default_boot_order.i = getelementptr inbounds nuw i8, ptr %call1.i.i, i64 200
  tail call void @llvm.memset.p0.i64(ptr noundef nonnull align 8 dereferenceable(72) %boot_config.i.i, i8 0, i64 72, i1 false)
  %8 = load ptr, ptr %default_boot_order.i, align 8
  %call1.i34 = tail call noalias ptr @g_strdup(ptr noundef %8) #16
  store ptr %call1.i34, ptr %boot_config.i.i, align 8
  ret void
}